; Function Attrs: nounwind uwtable
define dso_local void @sema_context_destroy(ptr nocapture noundef readonly %0) local_unnamed_addr #0 {
  %2 = getelementptr inbounds i8, ptr %0, i64 8
  %3 = load ptr, ptr %2, align 8
  %.not = icmp eq ptr %3, null
  br i1 %.not, label %71, label %4

4:                                                ; preds = %1
  %5 = getelementptr inbounds i8, ptr %0, i64 240
  %6 = load ptr, ptr %5, align 8
  %7 = load ptr, ptr getelementptr inbounds (%struct.GlobalContext, ptr @global_context, i64 0, i32 13), align 8
  %.not.i.i = icmp eq ptr %7, null
  br i1 %.not.i.i, label %8, label %11

8:                                                ; preds = %4
  %9 = tail call ptr @calloc_arena(i64 noundef 72) #10
  %10 = getelementptr inbounds i8, ptr %9, i64 4
  store i32 8, ptr %10, align 4
  br label %13

11:                                               ; preds = %4
  %12 = getelementptr inbounds i8, ptr %7, i64 -8
  %.phi.trans.insert.i.i = getelementptr inbounds i8, ptr %7, i64 -4
  %.pre.i.i = load i32, ptr %.phi.trans.insert.i.i, align 4
  br label %13

13:                                               ; preds = %11, %8
  %14 = phi i32 [ %.pre.i.i, %11 ], [ 8, %8 ]
  %.0.i.i = phi ptr [ %12, %11 ], [ %9, %8 ]
  %15 = load i32, ptr %.0.i.i, align 4
  %16 = icmp eq i32 %15, %14
  br i1 %16, label %17, label %generic_context_release_locals_list.exit

17:                                               ; preds = %13
  %18 = getelementptr inbounds i8, ptr %.0.i.i, i64 4
  %19 = shl i32 %14, 1
  %20 = zext i32 %19 to i64
  %21 = shl nuw nsw i64 %20, 3
  %22 = or disjoint i64 %21, 8
  %23 = tail call ptr @calloc_arena(i64 noundef %22) #10
  %24 = getelementptr inbounds i8, ptr %23, i64 4
  store i32 %19, ptr %24, align 4
  %25 = load i32, ptr %18, align 4
  %26 = zext i32 %25 to i64
  %27 = shl nuw nsw i64 %26, 3
  %28 = add nuw nsw i64 %27, 8
  tail call void @llvm.memcpy.p0.p0.i64(ptr noundef nonnull align 4 dereferenceable(1) %23, ptr noundef nonnull align 4 dereferenceable(1) %.0.i.i, i64 %28, i1 false)
  %29 = load i32, ptr %24, align 4
  %30 = shl i32 %29, 1
  store i32 %30, ptr %24, align 4
  %.pre18.i.i = load i32, ptr %23, align 4
  br label %generic_context_release_locals_list.exit

generic_context_release_locals_list.exit:         ; preds = %13, %17
  %31 = phi i32 [ %.pre18.i.i, %17 ], [ %15, %13 ]
  %.1.i.i = phi ptr [ %23, %17 ], [ %.0.i.i, %13 ]
  %32 = add i32 %31, 1
  store i32 %32, ptr %.1.i.i, align 4
  %33 = getelementptr inbounds i8, ptr %.1.i.i, i64 8
  store ptr %33, ptr getelementptr inbounds (%struct.GlobalContext, ptr @global_context, i64 0, i32 13), align 8
  %34 = load i32, ptr %.1.i.i, align 4
  %35 = add i32 %34, -1
  %36 = zext i32 %35 to i64
  %37 = getelementptr inbounds ptr, ptr %33, i64 %36
  store ptr %6, ptr %37, align 8
  %38 = getelementptr inbounds i8, ptr %0, i64 216
  %39 = load ptr, ptr %38, align 8
  %40 = load ptr, ptr getelementptr inbounds (%struct.GlobalContext, ptr @global_context, i64 0, i32 13), align 8
  %.not.i.i3 = icmp eq ptr %40, null
  br i1 %.not.i.i3, label %41, label %44

41:                                               ; preds = %generic_context_release_locals_list.exit
  %42 = tail call ptr @calloc_arena(i64 noundef 72) #10
  %43 = getelementptr inbounds i8, ptr %42, i64 4
  store i32 8, ptr %43, align 4
  br label %46

44:                                               ; preds = %generic_context_release_locals_list.exit
  %45 = getelementptr inbounds i8, ptr %40, i64 -8
  %.phi.trans.insert.i.i4 = getelementptr inbounds i8, ptr %40, i64 -4
  %.pre.i.i5 = load i32, ptr %.phi.trans.insert.i.i4, align 4
  br label %46

46:                                               ; preds = %44, %41
  %47 = phi i32 [ %.pre.i.i5, %44 ], [ 8, %41 ]
  %.0.i.i6 = phi ptr [ %45, %44 ], [ %42, %41 ]
  %48 = load i32, ptr %.0.i.i6, align 4
  %49 = icmp eq i32 %48, %47
  br i1 %49, label %50, label %generic_context_release_locals_list.exit9

50:                                               ; preds = %46
  %51 = getelementptr inbounds i8, ptr %.0.i.i6, i64 4
  %52 = shl i32 %47, 1
  %53 = zext i32 %52 to i64
  %54 = shl nuw nsw i64 %53, 3
  %55 = or disjoint i64 %54, 8
  %56 = tail call ptr @calloc_arena(i64 noundef %55) #10
  %57 = getelementptr inbounds i8, ptr %56, i64 4
  store i32 %52, ptr %57, align 4
  %58 = load i32, ptr %51, align 4
  %59 = zext i32 %58 to i64
  %60 = shl nuw nsw i64 %59, 3
  %61 = add nuw nsw i64 %60, 8
  tail call void @llvm.memcpy.p0.p0.i64(ptr noundef nonnull align 4 dereferenceable(1) %56, ptr noundef nonnull align 4 dereferenceable(1) %.0.i.i6, i64 %61, i1 false)
  %62 = load i32, ptr %57, align 4
  %63 = shl i32 %62, 1
  store i32 %63, ptr %57, align 4
  %.pre18.i.i8 = load i32, ptr %56, align 4
  br label %generic_context_release_locals_list.exit9

generic_context_release_locals_list.exit9:        ; preds = %46, %50
  %64 = phi i32 [ %.pre18.i.i8, %50 ], [ %48, %46 ]
  %.1.i.i7 = phi ptr [ %56, %50 ], [ %.0.i.i6, %46 ]
  %65 = add i32 %64, 1
  store i32 %65, ptr %.1.i.i7, align 4
  %66 = getelementptr inbounds i8, ptr %.1.i.i7, i64 8
  store ptr %66, ptr getelementptr inbounds (%struct.GlobalContext, ptr @global_context, i64 0, i32 13), align 8
  %67 = load i32, ptr %.1.i.i7, align 4
  %68 = add i32 %67, -1
  %69 = zext i32 %68 to i64
  %70 = getelementptr inbounds ptr, ptr %66, i64 %69
  store ptr %39, ptr %70, align 8
  br label %71

71:                                               ; preds = %1, %generic_context_release_locals_list.exit9
  ret void
}